target datalayout = "e-m:e-p270:32:32-p271:32:32-p272:64:64-i64:64-i128:128-f80:128-n8:16:32:64-S128"
target triple = "x86_64-pc-linux-gnu"

%"class.vcg::trackutils::DrawingHint" = type { i32, i8, i8, %"class.vcg::Color4", float, float }
%"class.vcg::Color4" = type { %"class.vcg::Point4.19" }
%"class.vcg::Point4.19" = type { [4 x i8] }

@_ZN3vcg10trackutils2DHE = global %"class.vcg::trackutils::DrawingHint" zeroinitializer, align 4

; Function Attrs: mustprogress uwtable
define void @_ZN3vcg10trackutils10DrawCircleEb(i1 noundef zeroext %0) #3 {
  %2 = alloca i8, align 1
  %3 = alloca i32, align 4
  %4 = alloca double, align 8
  %5 = alloca double, align 8
  %6 = zext i1 %0 to i8
  store i8 %6, ptr %2, align 1
  %7 = load i32, ptr @_ZN3vcg10trackutils2DHE, align 4
  store i32 %7, ptr %3, align 4
  store double 0x401921FB53C8D4F1, ptr %4, align 8
  call void @glBegin(i32 noundef 2)
  store double 0.000000e+00, ptr %5, align 8
  br label %8

8:                                                ; preds = %38, %1
  %9 = load double, ptr %5, align 8
  %10 = load i32, ptr %3, align 4
  %11 = sitofp i32 %10 to double
  %12 = fcmp olt double %9, %11
  br i1 %12, label %13, label %41

13:                                               ; preds = %8
  %14 = load double, ptr %5, align 8
  %15 = fmul double %14, 0x401921FB53C8D4F1
  %16 = load i32, ptr %3, align 4
  %17 = sitofp i32 %16 to double
  %18 = fdiv double %15, %17
  %19 = call double @cos(double noundef %18) #7
  %20 = load double, ptr %5, align 8
  %21 = fmul double %20, 0x401921FB53C8D4F1
  %22 = load i32, ptr %3, align 4
  %23 = sitofp i32 %22 to double
  %24 = fdiv double %21, %23
  %25 = call double @sin(double noundef %24) #7
  call void @glNormal3d(double noundef %19, double noundef %25, double noundef 0.000000e+00)
  %26 = load double, ptr %5, align 8
  %27 = fmul double %26, 0x401921FB53C8D4F1
  %28 = load i32, ptr %3, align 4
  %29 = sitofp i32 %28 to double
  %30 = fdiv double %27, %29
  %31 = call double @cos(double noundef %30) #7
  %32 = load double, ptr %5, align 8
  %33 = fmul double %32, 0x401921FB53C8D4F1
  %34 = load i32, ptr %3, align 4
  %35 = sitofp i32 %34 to double
  %36 = fdiv double %33, %35
  %37 = call double @sin(double noundef %36) #7
  call void @glVertex3d(double noundef %31, double noundef %37, double noundef 0.000000e+00)
  br label %38

38:                                               ; preds = %13
  %39 = load double, ptr %5, align 8
  %40 = fadd double %39, 1.000000e+00
  store double %40, ptr %5, align 8
  br label %8, !llvm.loop !11

41:                                               ; preds = %8
  call void @glEnd()
  %42 = load i8, ptr %2, align 1
  %43 = trunc i8 %42 to i1
  br i1 %43, label %44, label %45

44:                                               ; preds = %41
  call void @_ZN3vcg10trackutils15DrawPlaneHandleEv()
  br label %45

45:                                               ; preds = %44, %41
  ret void
}