; Function Attrs: mustprogress uwtable
define void @_ZN3vcg10trackutils10DrawCircleEb(i1 noundef zeroext %0) local_unnamed_addr #4 {
  %2 = load i32, ptr @_ZN3vcg10trackutils2DHE, align 4
  tail call void @glBegin(i32 noundef 2)
  %3 = sitofp i32 %2 to double
  %4 = icmp sgt i32 %2, 0
  br i1 %4, label %.lr.ph, label %._crit_edge

.lr.ph:                                           ; preds = %1, %.lr.ph
  %.012 = phi double [ %11, %.lr.ph ], [ 0.000000e+00, %1 ]
  %5 = fmul double %.012, 0x401921FB53C8D4F1
  %6 = fdiv double %5, %3
  %7 = tail call double @cos(double noundef %6) #34
  %8 = tail call double @sin(double noundef %6) #34
  tail call void @glNormal3d(double noundef %7, double noundef %8, double noundef 0.000000e+00)
  %9 = tail call double @cos(double noundef %6) #34
  %10 = tail call double @sin(double noundef %6) #34
  tail call void @glVertex3d(double noundef %9, double noundef %10, double noundef 0.000000e+00)
  %11 = fadd double %.012, 1.000000e+00
  %12 = fcmp olt double %11, %3
  br i1 %12, label %.lr.ph, label %._crit_edge, !llvm.loop !48

._crit_edge:                                      ; preds = %.lr.ph, %1
  tail call void @glEnd()
  br i1 %0, label %13, label %14

13:                                               ; preds = %._crit_edge
  tail call void @_ZN3vcg10trackutils15DrawPlaneHandleEv()
  br label %14

14:                                               ; preds = %13, %._crit_edge
  ret void
}